target datalayout = "e-m:e-p270:32:32-p271:32:32-p272:64:64-i64:64-i128:128-f80:128-n8:16:32:64-S128"
target triple = "x86_64-pc-linux-gnu"

@globtserv = internal global ptr null, align 8
@shutdowndone = internal global i32 0, align 4

; Function Attrs: nounwind uwtable
define internal void @run_server_shutdown_thread() #0 {
  %1 = alloca i32, align 4
  br label %2

2:                                                ; preds = %5, %0
  %3 = load ptr, ptr @globtserv, align 8, !tbaa !29
  %4 = call i32 @ossl_quic_tserver_tick(ptr noundef %3)
  br label %5

5:                                                ; preds = %2
  %6 = load atomic i32, ptr @shutdowndone monotonic, align 4
  store i32 %6, ptr %1, align 4
  %7 = load i32, ptr %1, align 4, !tbaa !13
  %8 = icmp ne i32 %7, 0
  %9 = xor i1 %8, true
  br i1 %9, label %2, label %10, !llvm.loop !82

10:                                               ; preds = %5
  ret void
}