; Function Attrs: nounwind uwtable
define internal void @run_server_shutdown_thread() #0 {
  br label %1

1:                                                ; preds = %1, %0
  %2 = load ptr, ptr @globtserv, align 8, !tbaa !9
  %3 = tail call i32 @ossl_quic_tserver_tick(ptr noundef %2) #10
  %4 = load atomic i32, ptr @shutdowndone monotonic, align 4
  %.not = icmp eq i32 %4, 0
  br i1 %.not, label %1, label %5, !llvm.loop !59

5:                                                ; preds = %1
  ret void
}